; Function Attrs: mustprogress uwtable
define dso_local void @_ZN4Json9OurReaderC2ERKNS_11OurFeaturesE(ptr noundef nonnull align 8 dereferenceable(297) %0, ptr nocapture noundef nonnull readonly align 8 dereferenceable(24) %1) unnamed_addr #6 align 2 personality ptr @__gxx_personality_v0 {
  tail call void @llvm.memset.p0.i64(ptr noundef nonnull align 8 dereferenceable(80) %0, i8 0, i64 80, i1 false)
  tail call void @_ZNSt11_Deque_baseIPN4Json5ValueESaIS2_EE17_M_initialize_mapEm(ptr noundef nonnull align 8 dereferenceable(80) %0, i64 noundef 0)
  %3 = getelementptr inbounds i8, ptr %0, i64 80
  tail call void @llvm.memset.p0.i64(ptr noundef nonnull align 8 dereferenceable(80) %3, i8 0, i64 80, i1 false)
  invoke void @_ZNSt11_Deque_baseIN4Json9OurReader9ErrorInfoESaIS2_EE17_M_initialize_mapEm(ptr noundef nonnull align 8 dereferenceable(80) %3, i64 noundef 0)
          to label %_ZNSt5dequeIN4Json9OurReader9ErrorInfoESaIS2_EEC2Ev.exit unwind label %9

_ZNSt5dequeIN4Json9OurReader9ErrorInfoESaIS2_EEC2Ev.exit: ; preds = %2
  %4 = getelementptr inbounds i8, ptr %0, i64 160
  tail call void @_ZNSt7__cxx1112basic_stringIcSt11char_traitsIcESaIcEEC1Ev(ptr noundef nonnull align 8 dereferenceable(32) %4) #25
  %5 = getelementptr inbounds i8, ptr %0, i64 192
  %6 = getelementptr inbounds i8, ptr %0, i64 240
  tail call void @llvm.memset.p0.i64(ptr noundef nonnull align 8 dereferenceable(41) %5, i8 0, i64 41, i1 false)
  tail call void @_ZNSt7__cxx1112basic_stringIcSt11char_traitsIcESaIcEEC1Ev(ptr noundef nonnull align 8 dereferenceable(32) %6) #25
  %7 = getelementptr inbounds i8, ptr %0, i64 272
  tail call void @llvm.memcpy.p0.p0.i64(ptr noundef nonnull align 8 dereferenceable(24) %7, ptr noundef nonnull align 8 dereferenceable(24) %1, i64 24, i1 false)
  %8 = getelementptr inbounds i8, ptr %0, i64 296
  store i8 0, ptr %8, align 8
  ret void

9:                                                ; preds = %2
  %10 = landingpad { ptr, i32 }
          cleanup
  tail call void @_ZNSt5stackIPN4Json5ValueESt5dequeIS2_SaIS2_EEED2Ev(ptr noundef nonnull align 8 dereferenceable(80) %0) #25
  resume { ptr, i32 } %10
}